target datalayout = "e-m:e-p270:32:32-p271:32:32-p272:64:64-i64:64-i128:128-f80:128-n8:16:32:64-S128"
target triple = "x86_64-unknown-linux-gnu"

%"class.std::vector.102" = type { %"struct.std::_Vector_base.103" }
%"struct.std::_Vector_base.103" = type { %"struct.std::_Vector_base<(anonymous namespace)::TestParams, std::allocator<(anonymous namespace)::TestParams>>::_Vector_impl" }
%"struct.std::_Vector_base<(anonymous namespace)::TestParams, std::allocator<(anonymous namespace)::TestParams>>::_Vector_impl" = type { %"struct.std::_Vector_base<(anonymous namespace)::TestParams, std::allocator<(anonymous namespace)::TestParams>>::_Vector_impl_data" }
%"struct.std::_Vector_base<(anonymous namespace)::TestParams, std::allocator<(anonymous namespace)::TestParams>>::_Vector_impl_data" = type { ptr, ptr, ptr }
%"class.__gnu_cxx::__normal_iterator.107" = type { ptr }
%"class.testing::internal::ValuesInIteratorRangeGenerator" = type { %"class.testing::internal::ParamGeneratorInterface", %"class.std::vector.102" }
%"class.testing::internal::ParamGeneratorInterface" = type { ptr }
%"class.testing::internal::ValuesInIteratorRangeGenerator<(anonymous namespace)::TestParams>::Iterator" = type { %"class.testing::internal::ParamIteratorInterface", ptr, %"class.__gnu_cxx::__normal_iterator.107", %"class.std::unique_ptr.108" }
%"class.testing::internal::ParamIteratorInterface" = type { ptr }
%"class.std::unique_ptr.108" = type { %"struct.std::__uniq_ptr_data.109" }
%"struct.std::__uniq_ptr_data.109" = type { %"class.std::__uniq_ptr_impl.110" }
%"class.std::__uniq_ptr_impl.110" = type { %"class.std::tuple.111" }
%"class.std::tuple.111" = type { %"struct.std::_Tuple_impl.112" }
%"struct.std::_Tuple_impl.112" = type { %"struct.std::_Head_base.115" }
%"struct.std::_Head_base.115" = type { ptr }

; Function Attrs: mustprogress nounwind uwtable
define internal void @_ZNSt10_Head_baseILm1ESt14default_deleteIKN12_GLOBAL__N_110TestParamsEELb1EEC2Ev(ptr noundef nonnull align 1 dereferenceable(1) %this) unnamed_addr #5 align 2 {
entry:
  %this.addr = alloca ptr, align 8
  store ptr %this, ptr %this.addr, align 8
  ret void
}

; Function Attrs: mustprogress nounwind uwtable
define internal void @_ZNSt10_Head_baseILm0EPKN12_GLOBAL__N_110TestParamsELb0EEC2Ev(ptr noundef nonnull align 8 dereferenceable(8) %this) unnamed_addr #5 align 2 {
entry:
  %this.addr = alloca ptr, align 8
  store ptr %this, ptr %this.addr, align 8
  %this1 = load ptr, ptr %this.addr, align 8
  %_M_head_impl = getelementptr inbounds %"struct.std::_Head_base.115", ptr %this1, i32 0, i32 0
  store ptr null, ptr %_M_head_impl, align 8
  ret void
}

; Function Attrs: mustprogress uwtable
define internal void @_ZNSt11_Tuple_implILm1EJSt14default_deleteIKN12_GLOBAL__N_110TestParamsEEEEC2Ev(ptr noundef nonnull align 1 dereferenceable(1) %this) unnamed_addr #4 align 2 {
entry:
  %this.addr = alloca ptr, align 8
  store ptr %this, ptr %this.addr, align 8
  %this1 = load ptr, ptr %this.addr, align 8
  call void @_ZNSt10_Head_baseILm1ESt14default_deleteIKN12_GLOBAL__N_110TestParamsEELb1EEC2Ev(ptr noundef nonnull align 1 dereferenceable(1) %this1)
  ret void
}

; Function Attrs: noreturn nounwind uwtable
define linkonce_odr hidden void @__clang_call_terminate(ptr noundef %0) #10 comdat {
  %2 = call ptr @__cxa_begin_catch(ptr %0) #3
  call void @_ZSt9terminatev() #21
  unreachable
}

; Function Attrs: mustprogress uwtable
define internal void @_ZNSt11_Tuple_implILm0EJPKN12_GLOBAL__N_110TestParamsESt14default_deleteIS2_EEEC2Ev(ptr noundef nonnull align 8 dereferenceable(8) %this) unnamed_addr #4 align 2 {
entry:
  %this.addr = alloca ptr, align 8
  store ptr %this, ptr %this.addr, align 8
  %this1 = load ptr, ptr %this.addr, align 8
  call void @_ZNSt11_Tuple_implILm1EJSt14default_deleteIKN12_GLOBAL__N_110TestParamsEEEEC2Ev(ptr noundef nonnull align 1 dereferenceable(1) %this1)
  call void @_ZNSt10_Head_baseILm0EPKN12_GLOBAL__N_110TestParamsELb0EEC2Ev(ptr noundef nonnull align 8 dereferenceable(8) %this1)
  ret void
}

; Function Attrs: mustprogress nounwind uwtable
define internal void @_ZNSt5tupleIJPKN12_GLOBAL__N_110TestParamsESt14default_deleteIS2_EEEC2ILb1ETnNSt9enable_ifIXclsr17_TupleConstraintsIXT_ES3_S5_EE37__is_implicitly_default_constructibleEEbE4typeELb1EEEv(ptr noundef nonnull align 8 dereferenceable(8) %this) unnamed_addr #5 align 2 personality ptr @__gxx_personality_v0 {
entry:
  %this.addr = alloca ptr, align 8
  store ptr %this, ptr %this.addr, align 8
  %this1 = load ptr, ptr %this.addr, align 8
  invoke void @_ZNSt11_Tuple_implILm0EJPKN12_GLOBAL__N_110TestParamsESt14default_deleteIS2_EEEC2Ev(ptr noundef nonnull align 8 dereferenceable(8) %this1)
          to label %invoke.cont unwind label %terminate.lpad

invoke.cont:                                      ; preds = %entry
  ret void

terminate.lpad:                                   ; preds = %entry
  %0 = landingpad { ptr, i32 }
          catch ptr null
  %1 = extractvalue { ptr, i32 } %0, 0
  call void @__clang_call_terminate(ptr %1) #21
  unreachable
}

; Function Attrs: mustprogress nounwind uwtable
define internal void @_ZNSt15__uniq_ptr_implIKN12_GLOBAL__N_110TestParamsESt14default_deleteIS2_EEC2Ev(ptr noundef nonnull align 8 dereferenceable(8) %this) unnamed_addr #5 align 2 {
entry:
  %this.addr = alloca ptr, align 8
  store ptr %this, ptr %this.addr, align 8
  %this1 = load ptr, ptr %this.addr, align 8
  %_M_t = getelementptr inbounds %"class.std::__uniq_ptr_impl.110", ptr %this1, i32 0, i32 0
  call void @_ZNSt5tupleIJPKN12_GLOBAL__N_110TestParamsESt14default_deleteIS2_EEEC2ILb1ETnNSt9enable_ifIXclsr17_TupleConstraintsIXT_ES3_S5_EE37__is_implicitly_default_constructibleEEbE4typeELb1EEEv(ptr noundef nonnull align 8 dereferenceable(8) %_M_t) #3
  ret void
}

; Function Attrs: mustprogress nounwind uwtable
define internal void @_ZNSt15__uniq_ptr_dataIKN12_GLOBAL__N_110TestParamsESt14default_deleteIS2_ELb1ELb1EEC2Ev(ptr noundef nonnull align 8 dereferenceable(8) %this) unnamed_addr #5 align 2 {
entry:
  %this.addr = alloca ptr, align 8
  store ptr %this, ptr %this.addr, align 8
  %this1 = load ptr, ptr %this.addr, align 8
  call void @_ZNSt15__uniq_ptr_implIKN12_GLOBAL__N_110TestParamsESt14default_deleteIS2_EEC2Ev(ptr noundef nonnull align 8 dereferenceable(8) %this1) #3
  ret void
}

; Function Attrs: mustprogress nounwind uwtable
define internal void @_ZNSt10unique_ptrIKN12_GLOBAL__N_110TestParamsESt14default_deleteIS2_EEC2IS4_vEEv(ptr noundef nonnull align 8 dereferenceable(8) %this) unnamed_addr #5 align 2 {
entry:
  %this.addr = alloca ptr, align 8
  store ptr %this, ptr %this.addr, align 8
  %this1 = load ptr, ptr %this.addr, align 8
  %_M_t = getelementptr inbounds %"class.std::unique_ptr.108", ptr %this1, i32 0, i32 0
  call void @llvm.memset.p0.i64(ptr align 8 %_M_t, i8 0, i64 8, i1 false)
  call void @_ZNSt15__uniq_ptr_dataIKN12_GLOBAL__N_110TestParamsESt14default_deleteIS2_ELb1ELb1EEC2Ev(ptr noundef nonnull align 8 dereferenceable(8) %_M_t) #3
  ret void
}

; Function Attrs: mustprogress nounwind uwtable
define internal void @_ZN7testing8internal22ParamIteratorInterfaceIN12_GLOBAL__N_110TestParamsEEC2Ev(ptr noundef nonnull align 8 dereferenceable(8) %this) unnamed_addr #5 align 2 {
entry:
  %this.addr = alloca ptr, align 8
  store ptr %this, ptr %this.addr, align 8
  %this1 = load ptr, ptr %this.addr, align 8
  store ptr getelementptr inbounds ({ [9 x ptr] }, ptr @_ZTVN7testing8internal22ParamIteratorInterfaceIN12_GLOBAL__N_110TestParamsEEE, i32 0, i32 0, i32 2), ptr %this1, align 8
  ret void
}

; Function Attrs: mustprogress nounwind uwtable
define internal void @_ZN9__gnu_cxx17__normal_iteratorIPKN12_GLOBAL__N_110TestParamsESt6vectorIS2_SaIS2_EEEC2ERKS4_(ptr noundef nonnull align 8 dereferenceable(8) %this, ptr noundef nonnull align 8 dereferenceable(8) %__i) unnamed_addr #5 align 2 {
entry:
  %this.addr = alloca ptr, align 8
  %__i.addr = alloca ptr, align 8
  store ptr %this, ptr %this.addr, align 8
  store ptr %__i, ptr %__i.addr, align 8
  %this1 = load ptr, ptr %this.addr, align 8
  %_M_current = getelementptr inbounds %"class.__gnu_cxx::__normal_iterator.107", ptr %this1, i32 0, i32 0
  %0 = load ptr, ptr %__i.addr, align 8
  %1 = load ptr, ptr %0, align 8
  store ptr %1, ptr %_M_current, align 8
  ret void
}

; Function Attrs: mustprogress nounwind uwtable
define internal void @_ZN7testing8internal30ValuesInIteratorRangeGeneratorIN12_GLOBAL__N_110TestParamsEE8IteratorC2EPKNS0_23ParamGeneratorInterfaceIS3_EEN9__gnu_cxx17__normal_iteratorIPKS3_St6vectorIS3_SaIS3_EEEE(ptr noundef nonnull align 8 dereferenceable(32) %this, ptr noundef %base, ptr %iterator.coerce) unnamed_addr #5 align 2 {
entry:
  %iterator = alloca %"class.__gnu_cxx::__normal_iterator.107", align 8
  %this.addr = alloca ptr, align 8
  %base.addr = alloca ptr, align 8
  %coerce.dive = getelementptr inbounds %"class.__gnu_cxx::__normal_iterator.107", ptr %iterator, i32 0, i32 0
  store ptr %iterator.coerce, ptr %coerce.dive, align 8
  store ptr %this, ptr %this.addr, align 8
  store ptr %base, ptr %base.addr, align 8
  %this1 = load ptr, ptr %this.addr, align 8
  call void @_ZN7testing8internal22ParamIteratorInterfaceIN12_GLOBAL__N_110TestParamsEEC2Ev(ptr noundef nonnull align 8 dereferenceable(8) %this1) #3
  store ptr getelementptr inbounds ({ [9 x ptr] }, ptr @_ZTVN7testing8internal30ValuesInIteratorRangeGeneratorIN12_GLOBAL__N_110TestParamsEE8IteratorE, i32 0, i32 0, i32 2), ptr %this1, align 8
  %base_ = getelementptr inbounds %"class.testing::internal::ValuesInIteratorRangeGenerator<(anonymous namespace)::TestParams>::Iterator", ptr %this1, i32 0, i32 1
  %0 = load ptr, ptr %base.addr, align 8
  store ptr %0, ptr %base_, align 8
  %iterator_ = getelementptr inbounds %"class.testing::internal::ValuesInIteratorRangeGenerator<(anonymous namespace)::TestParams>::Iterator", ptr %this1, i32 0, i32 2
  call void @llvm.memcpy.p0.p0.i64(ptr align 8 %iterator_, ptr align 8 %iterator, i64 8, i1 false)
  %value_ = getelementptr inbounds %"class.testing::internal::ValuesInIteratorRangeGenerator<(anonymous namespace)::TestParams>::Iterator", ptr %this1, i32 0, i32 3
  call void @_ZNSt10unique_ptrIKN12_GLOBAL__N_110TestParamsESt14default_deleteIS2_EEC2IS4_vEEv(ptr noundef nonnull align 8 dereferenceable(8) %value_) #3
  ret void
}

; Function Attrs: mustprogress nounwind uwtable
define internal ptr @_ZNKSt6vectorIN12_GLOBAL__N_110TestParamsESaIS1_EE3endEv(ptr noundef nonnull align 8 dereferenceable(24) %this) #5 align 2 {
entry:
  %retval = alloca %"class.__gnu_cxx::__normal_iterator.107", align 8
  %this.addr = alloca ptr, align 8
  store ptr %this, ptr %this.addr, align 8
  %this1 = load ptr, ptr %this.addr, align 8
  %_M_impl = getelementptr inbounds %"struct.std::_Vector_base.103", ptr %this1, i32 0, i32 0
  %_M_finish = getelementptr inbounds %"struct.std::_Vector_base<(anonymous namespace)::TestParams, std::allocator<(anonymous namespace)::TestParams>>::_Vector_impl_data", ptr %_M_impl, i32 0, i32 1
  call void @_ZN9__gnu_cxx17__normal_iteratorIPKN12_GLOBAL__N_110TestParamsESt6vectorIS2_SaIS2_EEEC2ERKS4_(ptr noundef nonnull align 8 dereferenceable(8) %retval, ptr noundef nonnull align 8 dereferenceable(8) %_M_finish) #3
  %coerce.dive = getelementptr inbounds %"class.__gnu_cxx::__normal_iterator.107", ptr %retval, i32 0, i32 0
  %0 = load ptr, ptr %coerce.dive, align 8
  ret ptr %0
}

; Function Attrs: mustprogress uwtable
define internal noundef ptr @_ZNK7testing8internal30ValuesInIteratorRangeGeneratorIN12_GLOBAL__N_110TestParamsEE3EndEv(ptr noundef nonnull align 8 dereferenceable(32) %this) unnamed_addr #4 align 2 personality ptr @__gxx_personality_v0 {
entry:
  %this.addr = alloca ptr, align 8
  %agg.tmp = alloca %"class.__gnu_cxx::__normal_iterator.107", align 8
  %exn.slot = alloca ptr, align 8
  %ehselector.slot = alloca i32, align 4
  store ptr %this, ptr %this.addr, align 8
  %this1 = load ptr, ptr %this.addr, align 8
  %call = call noalias noundef nonnull ptr @_Znwm(i64 noundef 32) #18
  %container_ = getelementptr inbounds %"class.testing::internal::ValuesInIteratorRangeGenerator", ptr %this1, i32 0, i32 1
  %call2 = call ptr @_ZNKSt6vectorIN12_GLOBAL__N_110TestParamsESaIS1_EE3endEv(ptr noundef nonnull align 8 dereferenceable(24) %container_) #3
  %coerce.dive = getelementptr inbounds %"class.__gnu_cxx::__normal_iterator.107", ptr %agg.tmp, i32 0, i32 0
  store ptr %call2, ptr %coerce.dive, align 8
  %coerce.dive3 = getelementptr inbounds %"class.__gnu_cxx::__normal_iterator.107", ptr %agg.tmp, i32 0, i32 0
  %0 = load ptr, ptr %coerce.dive3, align 8
  invoke void @_ZN7testing8internal30ValuesInIteratorRangeGeneratorIN12_GLOBAL__N_110TestParamsEE8IteratorC2EPKNS0_23ParamGeneratorInterfaceIS3_EEN9__gnu_cxx17__normal_iteratorIPKS3_St6vectorIS3_SaIS3_EEEE(ptr noundef nonnull align 8 dereferenceable(32) %call, ptr noundef %this1, ptr %0)
          to label %invoke.cont unwind label %lpad

invoke.cont:                                      ; preds = %entry
  ret ptr %call

lpad:                                             ; preds = %entry
  %1 = landingpad { ptr, i32 }
          cleanup
  %2 = extractvalue { ptr, i32 } %1, 0
  store ptr %2, ptr %exn.slot, align 8
  %3 = extractvalue { ptr, i32 } %1, 1
  store i32 %3, ptr %ehselector.slot, align 4
  call void @_ZdlPv(ptr noundef %call) #20
  br label %eh.resume

eh.resume:                                        ; preds = %lpad
  %exn = load ptr, ptr %exn.slot, align 8
  %sel = load i32, ptr %ehselector.slot, align 4
  %lpad.val = insertvalue { ptr, i32 } poison, ptr %exn, 0
  %lpad.val4 = insertvalue { ptr, i32 } %lpad.val, i32 %sel, 1
  resume { ptr, i32 } %lpad.val4
}